target datalayout = "e-m:e-p270:32:32-p271:32:32-p272:64:64-i64:64-i128:128-f80:128-n8:16:32:64-S128"
target triple = "x86_64-unknown-linux-gnu"

; Function Attrs: mustprogress nounwind uwtable
define linkonce_odr noundef double @_ZSt4fmodIdiEN9__gnu_cxx9__promoteIDTplcvNS1_IT_Xsr3std12__is_integerIS2_EE7__valueEE6__typeELi0EcvNS1_IT0_Xsr3std12__is_integerIS5_EE7__valueEE6__typeELi0EEXsr3std12__is_integerIS8_EE7__valueEE6__typeES2_S5_(double noundef %__x, i32 noundef %__y) #0 comdat {
entry:
  %__x.addr = alloca double, align 8
  %__y.addr = alloca i32, align 4
  store double %__x, ptr %__x.addr, align 8
  store i32 %__y, ptr %__y.addr, align 4
  %0 = load double, ptr %__x.addr, align 8
  %1 = load i32, ptr %__y.addr, align 4
  %conv = sitofp i32 %1 to double
  %call = call double @fmod(double noundef %0, double noundef %conv) #7
  ret double %call
}

; Function Attrs: mustprogress nounwind uwtable
define internal noundef zeroext i1 @_ZN6hermes2vmL10isLeapYearEd(double noundef %y) #0 {
entry:
  %retval = alloca i1, align 1
  %y.addr = alloca double, align 8
  store double %y, ptr %y.addr, align 8
  %0 = load double, ptr %y.addr, align 8
  %call = call noundef double @_ZSt4fmodIdiEN9__gnu_cxx9__promoteIDTplcvNS1_IT_Xsr3std12__is_integerIS2_EE7__valueEE6__typeELi0EcvNS1_IT0_Xsr3std12__is_integerIS5_EE7__valueEE6__typeELi0EEXsr3std12__is_integerIS8_EE7__valueEE6__typeES2_S5_(double noundef %0, i32 noundef 4)
  %cmp = fcmp une double %call, 0.000000e+00
  br i1 %cmp, label %if.then, label %if.end

if.then:                                          ; preds = %entry
  store i1 false, ptr %retval, align 1
  br label %return

if.end:                                           ; preds = %entry
  %1 = load double, ptr %y.addr, align 8
  %call1 = call noundef double @_ZSt4fmodIdiEN9__gnu_cxx9__promoteIDTplcvNS1_IT_Xsr3std12__is_integerIS2_EE7__valueEE6__typeELi0EcvNS1_IT0_Xsr3std12__is_integerIS5_EE7__valueEE6__typeELi0EEXsr3std12__is_integerIS8_EE7__valueEE6__typeES2_S5_(double noundef %1, i32 noundef 100)
  %cmp2 = fcmp une double %call1, 0.000000e+00
  br i1 %cmp2, label %if.then3, label %if.end4

if.then3:                                         ; preds = %if.end
  store i1 true, ptr %retval, align 1
  br label %return

if.end4:                                          ; preds = %if.end
  %2 = load double, ptr %y.addr, align 8
  %call5 = call noundef double @_ZSt4fmodIdiEN9__gnu_cxx9__promoteIDTplcvNS1_IT_Xsr3std12__is_integerIS2_EE7__valueEE6__typeELi0EcvNS1_IT0_Xsr3std12__is_integerIS5_EE7__valueEE6__typeELi0EEXsr3std12__is_integerIS8_EE7__valueEE6__typeES2_S5_(double noundef %2, i32 noundef 400)
  %cmp6 = fcmp une double %call5, 0.000000e+00
  br i1 %cmp6, label %if.then7, label %if.end8

if.then7:                                         ; preds = %if.end4
  store i1 false, ptr %retval, align 1
  br label %return

if.end8:                                          ; preds = %if.end4
  store i1 true, ptr %retval, align 1
  br label %return

return:                                           ; preds = %if.end8, %if.then7, %if.then3, %if.then
  %3 = load i1, ptr %retval, align 1
  ret i1 %3
}

; Function Attrs: mustprogress nounwind uwtable
define hidden noundef double @_ZN6hermes2vm11dayFromYearEd(double noundef %y) #0 {
entry:
  %y.addr = alloca double, align 8
  store double %y, ptr %y.addr, align 8
  %0 = load double, ptr %y.addr, align 8
  %sub = fsub double %0, 1.970000e+03
  %1 = load double, ptr %y.addr, align 8
  %sub1 = fsub double %1, 1.969000e+03
  %div = fdiv double %sub1, 4.000000e+00
  %2 = call double @llvm.floor.f64(double %div)
  %3 = call double @llvm.fmuladd.f64(double 3.650000e+02, double %sub, double %2)
  %4 = load double, ptr %y.addr, align 8
  %sub2 = fsub double %4, 1.901000e+03
  %div3 = fdiv double %sub2, 1.000000e+02
  %5 = call double @llvm.floor.f64(double %div3)
  %sub4 = fsub double %3, %5
  %6 = load double, ptr %y.addr, align 8
  %sub5 = fsub double %6, 1.601000e+03
  %div6 = fdiv double %sub5, 4.000000e+02
  %7 = call double @llvm.floor.f64(double %div6)
  %add = fadd double %sub4, %7
  ret double %add
}

; Function Attrs: mustprogress nounwind uwtable
define hidden noundef i32 @_ZN6hermes2vm10daysInYearEd(double noundef %y) #0 {
entry:
  %y.addr = alloca double, align 8
  store double %y, ptr %y.addr, align 8
  %0 = load double, ptr %y.addr, align 8
  %call = call noundef zeroext i1 @_ZN6hermes2vmL10isLeapYearEd(double noundef %0)
  %cond = select i1 %call, i32 366, i32 365
  ret i32 %cond
}

; Function Attrs: mustprogress nounwind uwtable
define hidden noundef double @_ZN6hermes2vm12timeFromYearEd(double noundef %y) #0 {
entry:
  %y.addr = alloca double, align 8
  store double %y, ptr %y.addr, align 8
  %0 = load double, ptr %y.addr, align 8
  %call = call noundef double @_ZN6hermes2vm11dayFromYearEd(double noundef %0)
  %mul = fmul double 8.640000e+07, %call
  ret double %mul
}

; Function Attrs: mustprogress nounwind uwtable
define linkonce_odr noundef zeroext i1 @_ZSt8isfinited(double noundef %__x) #0 comdat {
entry:
  %__x.addr = alloca double, align 8
  store double %__x, ptr %__x.addr, align 8
  %0 = load double, ptr %__x.addr, align 8
  %1 = call i1 @llvm.is.fpclass.f64(double %0, i32 504)
  ret i1 %1
}

; Function Attrs: mustprogress nounwind uwtable
define hidden noundef double @_ZN6hermes2vm12yearFromTimeEd(double noundef %t) #0 {
entry:
  %retval = alloca double, align 8
  %t.addr = alloca double, align 8
  %y = alloca double, align 8
  %yt = alloca double, align 8
  store double %t, ptr %t.addr, align 8
  %0 = load double, ptr %t.addr, align 8
  %call = call noundef zeroext i1 @_ZSt8isfinited(double noundef %0)
  br i1 %call, label %if.end, label %if.then

if.then:                                          ; preds = %entry
  %1 = load double, ptr %t.addr, align 8
  store double %1, ptr %retval, align 8
  br label %return

if.end:                                           ; preds = %entry
  %2 = load double, ptr %t.addr, align 8
  %div = fdiv double %2, 0x421D63C37F000000
  %3 = call double @llvm.floor.f64(double %div)
  %add = fadd double %3, 1.970000e+03
  store double %add, ptr %y, align 8
  %4 = load double, ptr %y, align 8
  %call1 = call noundef double @_ZN6hermes2vm12timeFromYearEd(double noundef %4)
  store double %call1, ptr %yt, align 8
  br label %while.cond

while.cond:                                       ; preds = %while.body, %if.end
  %5 = load double, ptr %yt, align 8
  %6 = load double, ptr %t.addr, align 8
  %cmp = fcmp ogt double %5, %6
  br i1 %cmp, label %while.body, label %while.end

while.body:                                       ; preds = %while.cond
  %7 = load double, ptr %y, align 8
  %dec = fadd double %7, -1.000000e+00
  store double %dec, ptr %y, align 8
  %8 = load double, ptr %y, align 8
  %call2 = call noundef double @_ZN6hermes2vm12timeFromYearEd(double noundef %8)
  store double %call2, ptr %yt, align 8
  br label %while.cond, !llvm.loop !4

while.end:                                        ; preds = %while.cond
  br label %while.cond3

while.cond3:                                      ; preds = %while.body6, %while.end
  %9 = load double, ptr %yt, align 8
  %10 = load double, ptr %y, align 8
  %call4 = call noundef i32 @_ZN6hermes2vm10daysInYearEd(double noundef %10)
  %conv = uitofp i32 %call4 to double
  %11 = call double @llvm.fmuladd.f64(double %conv, double 8.640000e+07, double %9)
  %12 = load double, ptr %t.addr, align 8
  %cmp5 = fcmp ole double %11, %12
  br i1 %cmp5, label %while.body6, label %while.end8

while.body6:                                      ; preds = %while.cond3
  %13 = load double, ptr %y, align 8
  %inc = fadd double %13, 1.000000e+00
  store double %inc, ptr %y, align 8
  %14 = load double, ptr %y, align 8
  %call7 = call noundef double @_ZN6hermes2vm12timeFromYearEd(double noundef %14)
  store double %call7, ptr %yt, align 8
  br label %while.cond3, !llvm.loop !6

while.end8:                                       ; preds = %while.cond3
  %15 = load double, ptr %y, align 8
  store double %15, ptr %retval, align 8
  br label %return

return:                                           ; preds = %while.end8, %if.then
  %16 = load double, ptr %retval, align 8
  ret double %16
}