; Function Attrs: mustprogress nofree nounwind memory(write) uwtable
define hidden noundef double @_ZN6hermes2vm12yearFromTimeEd(double noundef %t) local_unnamed_addr #5 {
entry:
  %0 = tail call double @llvm.fabs.f64(double %t)
  %1 = fcmp ueq double %0, 0x7FF0000000000000
  br i1 %1, label %return, label %if.end

if.end:                                           ; preds = %entry
  %div = fdiv double %t, 0x421D63C37F000000
  %2 = tail call double @llvm.floor.f64(double %div)
  %add = fadd double %2, 1.970000e+03
  %sub.i.i = fadd double %add, -1.970000e+03
  %sub1.i.i = fadd double %add, -1.969000e+03
  %div.i.i = fmul double %sub1.i.i, 2.500000e-01
  %3 = tail call double @llvm.floor.f64(double %div.i.i)
  %4 = tail call double @llvm.fmuladd.f64(double %sub.i.i, double 3.650000e+02, double %3)
  %sub2.i.i = fadd double %add, -1.901000e+03
  %div3.i.i = fdiv double %sub2.i.i, 1.000000e+02
  %5 = tail call double @llvm.floor.f64(double %div3.i.i)
  %sub4.i.i = fsub double %4, %5
  %sub5.i.i = fadd double %add, -1.601000e+03
  %div6.i.i = fdiv double %sub5.i.i, 4.000000e+02
  %6 = tail call double @llvm.floor.f64(double %div6.i.i)
  %add.i.i = fadd double %6, %sub4.i.i
  %yt.032 = fmul double %add.i.i, 8.640000e+07
  %cmp33 = fcmp ogt double %yt.032, %t
  br i1 %cmp33, label %while.body, label %while.cond3.preheader

while.body:                                       ; preds = %if.end, %while.body
  %y.034 = phi double [ %dec, %while.body ], [ %add, %if.end ]
  %dec = fadd double %y.034, -1.000000e+00
  %sub.i.i12 = fadd double %dec, -1.970000e+03
  %sub1.i.i13 = fadd double %dec, -1.969000e+03
  %div.i.i14 = fmul double %sub1.i.i13, 2.500000e-01
  %7 = tail call double @llvm.floor.f64(double %div.i.i14)
  %8 = tail call double @llvm.fmuladd.f64(double %sub.i.i12, double 3.650000e+02, double %7)
  %sub2.i.i15 = fadd double %dec, -1.901000e+03
  %div3.i.i16 = fdiv double %sub2.i.i15, 1.000000e+02
  %9 = tail call double @llvm.floor.f64(double %div3.i.i16)
  %sub4.i.i17 = fsub double %8, %9
  %sub5.i.i18 = fadd double %dec, -1.601000e+03
  %div6.i.i19 = fdiv double %sub5.i.i18, 4.000000e+02
  %10 = tail call double @llvm.floor.f64(double %div6.i.i19)
  %add.i.i20 = fadd double %10, %sub4.i.i17
  %yt.0 = fmul double %add.i.i20, 8.640000e+07
  %cmp = fcmp ogt double %yt.0, %t
  br i1 %cmp, label %while.body, label %while.cond3.preheader, !llvm.loop !4

while.cond3.preheader:                            ; preds = %while.body, %if.end
  %y.1.ph = phi double [ %add, %if.end ], [ %dec, %while.body ]
  %yt.1.ph = phi double [ %yt.032, %if.end ], [ %yt.0, %while.body ]
  br label %while.cond3

while.cond3:                                      ; preds = %while.cond3.preheader, %while.body6
  %y.1 = phi double [ %inc, %while.body6 ], [ %y.1.ph, %while.cond3.preheader ]
  %yt.1 = phi double [ %mul.i31, %while.body6 ], [ %yt.1.ph, %while.cond3.preheader ]
  %call.i.i.i = tail call noundef double @fmod(double noundef %y.1, double noundef 4.000000e+00) #17
  %cmp.i.i = fcmp une double %call.i.i.i, 0.000000e+00
  br i1 %cmp.i.i, label %_ZN6hermes2vm10daysInYearEd.exit, label %if.end.i.i

if.end.i.i:                                       ; preds = %while.cond3
  %call.i3.i.i = tail call noundef double @fmod(double noundef %y.1, double noundef 1.000000e+02) #17
  %cmp2.i.i = fcmp une double %call.i3.i.i, 0.000000e+00
  br i1 %cmp2.i.i, label %_ZN6hermes2vmL10isLeapYearEd.exit.thread.i, label %_ZN6hermes2vmL10isLeapYearEd.exit.i

_ZN6hermes2vmL10isLeapYearEd.exit.i:              ; preds = %if.end.i.i
  %call.i4.i.i = tail call noundef double @fmod(double noundef %y.1, double noundef 4.000000e+02) #17
  %cmp6.i.i = fcmp oeq double %call.i4.i.i, 0.000000e+00
  br i1 %cmp6.i.i, label %_ZN6hermes2vmL10isLeapYearEd.exit.thread.i, label %_ZN6hermes2vm10daysInYearEd.exit

_ZN6hermes2vmL10isLeapYearEd.exit.thread.i:       ; preds = %_ZN6hermes2vmL10isLeapYearEd.exit.i, %if.end.i.i
  br label %_ZN6hermes2vm10daysInYearEd.exit

_ZN6hermes2vm10daysInYearEd.exit:                 ; preds = %while.cond3, %_ZN6hermes2vmL10isLeapYearEd.exit.i, %_ZN6hermes2vmL10isLeapYearEd.exit.thread.i
  %conv = phi double [ 3.660000e+02, %_ZN6hermes2vmL10isLeapYearEd.exit.thread.i ], [ 3.650000e+02, %_ZN6hermes2vmL10isLeapYearEd.exit.i ], [ 3.650000e+02, %while.cond3 ]
  %11 = tail call double @llvm.fmuladd.f64(double %conv, double 8.640000e+07, double %yt.1)
  %cmp5 = fcmp ugt double %11, %t
  br i1 %cmp5, label %return, label %while.body6

while.body6:                                      ; preds = %_ZN6hermes2vm10daysInYearEd.exit
  %inc = fadd double %y.1, 1.000000e+00
  %sub.i.i22 = fadd double %inc, -1.970000e+03
  %sub1.i.i23 = fadd double %inc, -1.969000e+03
  %div.i.i24 = fmul double %sub1.i.i23, 2.500000e-01
  %12 = tail call double @llvm.floor.f64(double %div.i.i24)
  %13 = tail call double @llvm.fmuladd.f64(double %sub.i.i22, double 3.650000e+02, double %12)
  %sub2.i.i25 = fadd double %inc, -1.901000e+03
  %div3.i.i26 = fdiv double %sub2.i.i25, 1.000000e+02
  %14 = tail call double @llvm.floor.f64(double %div3.i.i26)
  %sub4.i.i27 = fsub double %13, %14
  %sub5.i.i28 = fadd double %inc, -1.601000e+03
  %div6.i.i29 = fdiv double %sub5.i.i28, 4.000000e+02
  %15 = tail call double @llvm.floor.f64(double %div6.i.i29)
  %add.i.i30 = fadd double %15, %sub4.i.i27
  %mul.i31 = fmul double %add.i.i30, 8.640000e+07
  br label %while.cond3, !llvm.loop !6

return:                                           ; preds = %_ZN6hermes2vm10daysInYearEd.exit, %entry
  %retval.0 = phi double [ %t, %entry ], [ %y.1, %_ZN6hermes2vm10daysInYearEd.exit ]
  ret double %retval.0
}